target datalayout = "e-m:e-p270:32:32-p271:32:32-p272:64:64-i64:64-i128:128-f80:128-n8:16:32:64-S128"
target triple = "x86_64-pc-linux-gnu"

%struct.ident_t = type { i32, i32, i32, i32, ptr }

@1 = private unnamed_addr constant %struct.ident_t { i32 0, i32 514, i32 0, i32 22, ptr @0 }, align 8
@2 = private unnamed_addr constant %struct.ident_t { i32 0, i32 66, i32 0, i32 22, ptr @0 }, align 8

; Function Attrs: alwaysinline norecurse nounwind uwtable
define internal void @statevec_compactUnitaryDistributed.omp_outlined(ptr noalias noundef %0, ptr noalias noundef %1, ptr noundef nonnull align 8 dereferenceable(8) %2, ptr noundef nonnull align 8 dereferenceable(8) %3, ptr noundef nonnull align 8 dereferenceable(8) %4, ptr noundef nonnull align 8 dereferenceable(8) %5, ptr noundef nonnull align 8 dereferenceable(8) %6, ptr noundef nonnull align 8 dereferenceable(8) %7, ptr noundef nonnull align 8 dereferenceable(8) %8, ptr noundef nonnull align 8 dereferenceable(8) %9, ptr noundef nonnull align 8 dereferenceable(8) %10, ptr noundef nonnull align 8 dereferenceable(8) %11, ptr noundef nonnull align 8 dereferenceable(8) %12) #2 {
  %14 = alloca ptr, align 8
  %15 = alloca ptr, align 8
  %16 = alloca ptr, align 8
  %17 = alloca ptr, align 8
  %18 = alloca ptr, align 8
  %19 = alloca ptr, align 8
  %20 = alloca ptr, align 8
  %21 = alloca ptr, align 8
  %22 = alloca ptr, align 8
  %23 = alloca ptr, align 8
  %24 = alloca ptr, align 8
  %25 = alloca ptr, align 8
  %26 = alloca ptr, align 8
  %27 = alloca double, align 8
  %28 = alloca double, align 8
  %29 = alloca double, align 8
  %30 = alloca double, align 8
  %31 = alloca i64, align 8
  %32 = alloca i64, align 8
  %33 = alloca i64, align 8
  %34 = alloca i64, align 8
  %35 = alloca i64, align 8
  %36 = alloca i64, align 8
  %37 = alloca i64, align 8
  %38 = alloca i32, align 4
  %39 = alloca i64, align 8
  store ptr %0, ptr %14, align 8, !tbaa !19
  store ptr %1, ptr %15, align 8, !tbaa !19
  store ptr %2, ptr %16, align 8, !tbaa !21
  store ptr %3, ptr %17, align 8, !tbaa !33
  store ptr %4, ptr %18, align 8, !tbaa !33
  store ptr %5, ptr %19, align 8, !tbaa !33
  store ptr %6, ptr %20, align 8, !tbaa !33
  store ptr %7, ptr %21, align 8, !tbaa !33
  store ptr %8, ptr %22, align 8, !tbaa !25
  store ptr %9, ptr %23, align 8, !tbaa !25
  store ptr %10, ptr %24, align 8, !tbaa !25
  store ptr %11, ptr %25, align 8, !tbaa !25
  store ptr %12, ptr %26, align 8, !tbaa !33
  %40 = load ptr, ptr %16, align 8, !tbaa !21
  %41 = load ptr, ptr %17, align 8, !tbaa !33
  %42 = load ptr, ptr %18, align 8, !tbaa !33
  %43 = load ptr, ptr %19, align 8, !tbaa !33
  %44 = load ptr, ptr %20, align 8, !tbaa !33
  %45 = load ptr, ptr %21, align 8, !tbaa !33
  %46 = load ptr, ptr %22, align 8, !tbaa !25
  %47 = load ptr, ptr %23, align 8, !tbaa !25
  %48 = load ptr, ptr %24, align 8, !tbaa !25
  %49 = load ptr, ptr %25, align 8, !tbaa !25
  %50 = load ptr, ptr %26, align 8, !tbaa !33
  call void @llvm.lifetime.start.p0(i64 8, ptr %27) #3
  call void @llvm.lifetime.start.p0(i64 8, ptr %28) #3
  call void @llvm.lifetime.start.p0(i64 8, ptr %29) #3
  call void @llvm.lifetime.start.p0(i64 8, ptr %30) #3
  call void @llvm.lifetime.start.p0(i64 8, ptr %31) #3
  call void @llvm.lifetime.start.p0(i64 8, ptr %32) #3
  %51 = load i64, ptr %40, align 8, !tbaa !4
  store i64 %51, ptr %32, align 8, !tbaa !4
  call void @llvm.lifetime.start.p0(i64 8, ptr %33) #3
  %52 = load i64, ptr %32, align 8, !tbaa !4
  %53 = sub nsw i64 %52, 0
  %54 = sdiv i64 %53, 1
  %55 = sub nsw i64 %54, 1
  store i64 %55, ptr %33, align 8, !tbaa !4
  call void @llvm.lifetime.start.p0(i64 8, ptr %34) #3
  store i64 0, ptr %34, align 8, !tbaa !4
  call void @llvm.lifetime.end.p0(i64 8, ptr %34) #3
  %56 = load i64, ptr %32, align 8, !tbaa !4
  %57 = icmp slt i64 0, %56
  br i1 %57, label %58, label %137

58:                                               ; preds = %13
  call void @llvm.lifetime.start.p0(i64 8, ptr %35) #3
  store i64 0, ptr %35, align 8, !tbaa !4
  call void @llvm.lifetime.start.p0(i64 8, ptr %36) #3
  %59 = load i64, ptr %33, align 8, !tbaa !4
  store i64 %59, ptr %36, align 8, !tbaa !4
  call void @llvm.lifetime.start.p0(i64 8, ptr %37) #3
  store i64 1, ptr %37, align 8, !tbaa !4
  call void @llvm.lifetime.start.p0(i64 4, ptr %38) #3
  store i32 0, ptr %38, align 4, !tbaa !8
  call void @llvm.lifetime.start.p0(i64 8, ptr %39) #3
  %60 = load ptr, ptr %14, align 8
  %61 = load i32, ptr %60, align 4, !tbaa !8
  call void @__kmpc_for_static_init_8(ptr @1, i32 %61, i32 34, ptr %38, ptr %35, ptr %36, ptr %37, i64 1, i64 1)
  %62 = load i64, ptr %36, align 8, !tbaa !4
  %63 = load i64, ptr %33, align 8, !tbaa !4
  %64 = icmp sgt i64 %62, %63
  br i1 %64, label %65, label %67

65:                                               ; preds = %58
  %66 = load i64, ptr %33, align 8, !tbaa !4
  br label %69

67:                                               ; preds = %58
  %68 = load i64, ptr %36, align 8, !tbaa !4
  br label %69

69:                                               ; preds = %67, %65
  %70 = phi i64 [ %66, %65 ], [ %68, %67 ]
  store i64 %70, ptr %36, align 8, !tbaa !4
  %71 = load i64, ptr %35, align 8, !tbaa !4
  store i64 %71, ptr %31, align 8, !tbaa !4
  br label %72

72:                                               ; preds = %130, %69
  %73 = load i64, ptr %31, align 8, !tbaa !4
  %74 = load i64, ptr %36, align 8, !tbaa !4
  %75 = icmp sle i64 %73, %74
  br i1 %75, label %77, label %76

76:                                               ; preds = %72
  br label %133

77:                                               ; preds = %72
  %78 = load i64, ptr %31, align 8, !tbaa !4
  %79 = mul nsw i64 %78, 1
  %80 = add nsw i64 0, %79
  store i64 %80, ptr %39, align 8, !tbaa !4
  %81 = load ptr, ptr %41, align 8, !tbaa !25
  %82 = load i64, ptr %39, align 8, !tbaa !4
  %83 = getelementptr inbounds double, ptr %81, i64 %82
  %84 = load double, ptr %83, align 8, !tbaa !10
  store double %84, ptr %27, align 8, !tbaa !10
  %85 = load ptr, ptr %42, align 8, !tbaa !25
  %86 = load i64, ptr %39, align 8, !tbaa !4
  %87 = getelementptr inbounds double, ptr %85, i64 %86
  %88 = load double, ptr %87, align 8, !tbaa !10
  store double %88, ptr %28, align 8, !tbaa !10
  %89 = load ptr, ptr %43, align 8, !tbaa !25
  %90 = load i64, ptr %39, align 8, !tbaa !4
  %91 = getelementptr inbounds double, ptr %89, i64 %90
  %92 = load double, ptr %91, align 8, !tbaa !10
  store double %92, ptr %29, align 8, !tbaa !10
  %93 = load ptr, ptr %44, align 8, !tbaa !25
  %94 = load i64, ptr %39, align 8, !tbaa !4
  %95 = getelementptr inbounds double, ptr %93, i64 %94
  %96 = load double, ptr %95, align 8, !tbaa !10
  store double %96, ptr %30, align 8, !tbaa !10
  %97 = load double, ptr %46, align 8, !tbaa !10
  %98 = load double, ptr %27, align 8, !tbaa !10
  %99 = load double, ptr %47, align 8, !tbaa !10
  %100 = load double, ptr %28, align 8, !tbaa !10
  %101 = fmul double %99, %100
  %102 = fneg double %101
  %103 = call double @llvm.fmuladd.f64(double %97, double %98, double %102)
  %104 = load double, ptr %48, align 8, !tbaa !10
  %105 = load double, ptr %29, align 8, !tbaa !10
  %106 = call double @llvm.fmuladd.f64(double %104, double %105, double %103)
  %107 = load double, ptr %49, align 8, !tbaa !10
  %108 = load double, ptr %30, align 8, !tbaa !10
  %109 = call double @llvm.fmuladd.f64(double %107, double %108, double %106)
  %110 = load ptr, ptr %45, align 8, !tbaa !25
  %111 = load i64, ptr %39, align 8, !tbaa !4
  %112 = getelementptr inbounds double, ptr %110, i64 %111
  store double %109, ptr %112, align 8, !tbaa !10
  %113 = load double, ptr %46, align 8, !tbaa !10
  %114 = load double, ptr %28, align 8, !tbaa !10
  %115 = load double, ptr %47, align 8, !tbaa !10
  %116 = load double, ptr %27, align 8, !tbaa !10
  %117 = fmul double %115, %116
  %118 = call double @llvm.fmuladd.f64(double %113, double %114, double %117)
  %119 = load double, ptr %48, align 8, !tbaa !10
  %120 = load double, ptr %30, align 8, !tbaa !10
  %121 = call double @llvm.fmuladd.f64(double %119, double %120, double %118)
  %122 = load double, ptr %49, align 8, !tbaa !10
  %123 = load double, ptr %29, align 8, !tbaa !10
  %124 = fneg double %122
  %125 = call double @llvm.fmuladd.f64(double %124, double %123, double %121)
  %126 = load ptr, ptr %50, align 8, !tbaa !25
  %127 = load i64, ptr %39, align 8, !tbaa !4
  %128 = getelementptr inbounds double, ptr %126, i64 %127
  store double %125, ptr %128, align 8, !tbaa !10
  br label %129

129:                                              ; preds = %77
  br label %130

130:                                              ; preds = %129
  %131 = load i64, ptr %31, align 8, !tbaa !4
  %132 = add nsw i64 %131, 1
  store i64 %132, ptr %31, align 8, !tbaa !4
  br label %72

133:                                              ; preds = %76
  br label %134

134:                                              ; preds = %133
  %135 = load ptr, ptr %14, align 8
  %136 = load i32, ptr %135, align 4, !tbaa !8
  call void @__kmpc_for_static_fini(ptr @1, i32 %136)
  call void @llvm.lifetime.end.p0(i64 8, ptr %39) #3
  call void @llvm.lifetime.end.p0(i64 4, ptr %38) #3
  call void @llvm.lifetime.end.p0(i64 8, ptr %37) #3
  call void @llvm.lifetime.end.p0(i64 8, ptr %36) #3
  call void @llvm.lifetime.end.p0(i64 8, ptr %35) #3
  br label %137

137:                                              ; preds = %134, %13
  call void @llvm.lifetime.end.p0(i64 8, ptr %33) #3
  call void @llvm.lifetime.end.p0(i64 8, ptr %32) #3
  call void @llvm.lifetime.end.p0(i64 8, ptr %31) #3
  %138 = load ptr, ptr %14, align 8
  %139 = load i32, ptr %138, align 4, !tbaa !8
  call void @__kmpc_barrier(ptr @2, i32 %139)
  call void @llvm.lifetime.end.p0(i64 8, ptr %30) #3
  call void @llvm.lifetime.end.p0(i64 8, ptr %29) #3
  call void @llvm.lifetime.end.p0(i64 8, ptr %28) #3
  call void @llvm.lifetime.end.p0(i64 8, ptr %27) #3
  ret void
}