; Function Attrs: alwaysinline norecurse nounwind uwtable
define internal void @statevec_compactUnitaryDistributed.omp_outlined(ptr noalias noundef readonly captures(none) %0, ptr noalias readnone captures(none) %1, ptr noundef nonnull readonly align 8 captures(none) dereferenceable(8) %2, ptr noundef nonnull readonly align 8 captures(none) dereferenceable(8) %3, ptr noundef nonnull readonly align 8 captures(none) dereferenceable(8) %4, ptr noundef nonnull readonly align 8 captures(none) dereferenceable(8) %5, ptr noundef nonnull readonly align 8 captures(none) dereferenceable(8) %6, ptr noundef nonnull readonly align 8 captures(none) dereferenceable(8) %7, ptr noundef nonnull readonly align 8 captures(none) dereferenceable(8) %8, ptr noundef nonnull readonly align 8 captures(none) dereferenceable(8) %9, ptr noundef nonnull readonly align 8 captures(none) dereferenceable(8) %10, ptr noundef nonnull readonly align 8 captures(none) dereferenceable(8) %11, ptr noundef nonnull readonly align 8 captures(none) dereferenceable(8) %12) #3 {
  %14 = alloca i64, align 8
  %15 = alloca i64, align 8
  %16 = alloca i64, align 8
  %17 = alloca i32, align 4
  %18 = load i64, ptr %2, align 8, !tbaa !16
  %19 = icmp sgt i64 %18, 0
  %.pre = load i32, ptr %0, align 4, !tbaa !18
  br i1 %19, label %20, label %61

20:                                               ; preds = %13
  %21 = add nsw i64 %18, -1
  call void @llvm.lifetime.start.p0(i64 8, ptr nonnull %14) #4
  store i64 0, ptr %14, align 8, !tbaa !16
  call void @llvm.lifetime.start.p0(i64 8, ptr nonnull %15) #4
  store i64 %21, ptr %15, align 8, !tbaa !16
  call void @llvm.lifetime.start.p0(i64 8, ptr nonnull %16) #4
  store i64 1, ptr %16, align 8, !tbaa !16
  call void @llvm.lifetime.start.p0(i64 4, ptr nonnull %17) #4
  store i32 0, ptr %17, align 4, !tbaa !18
  call void @__kmpc_for_static_init_8(ptr nonnull @1, i32 %.pre, i32 34, ptr nonnull %17, ptr nonnull %14, ptr nonnull %15, ptr nonnull %16, i64 1, i64 1)
  %22 = load i64, ptr %15, align 8, !tbaa !16
  %23 = call i64 @llvm.smin.i64(i64 %22, i64 %21)
  store i64 %23, ptr %15, align 8, !tbaa !16
  %24 = load i64, ptr %14, align 8, !tbaa !16
  %.not35 = icmp sgt i64 %24, %23
  br i1 %.not35, label %._crit_edge, label %.lr.ph

.lr.ph:                                           ; preds = %20
  %25 = load ptr, ptr %3, align 8, !tbaa !26
  %26 = load ptr, ptr %4, align 8, !tbaa !26
  %27 = load ptr, ptr %5, align 8, !tbaa !26
  %28 = load ptr, ptr %6, align 8, !tbaa !26
  %29 = load ptr, ptr %7, align 8, !tbaa !26
  %30 = load ptr, ptr %12, align 8, !tbaa !26
  br label %31

31:                                               ; preds = %.lr.ph, %31
  %.036 = phi i64 [ %24, %.lr.ph ], [ %60, %31 ]
  %32 = getelementptr inbounds double, ptr %25, i64 %.036
  %33 = load double, ptr %32, align 8, !tbaa !4
  %34 = getelementptr inbounds double, ptr %26, i64 %.036
  %35 = load double, ptr %34, align 8, !tbaa !4
  %36 = getelementptr inbounds double, ptr %27, i64 %.036
  %37 = load double, ptr %36, align 8, !tbaa !4
  %38 = getelementptr inbounds double, ptr %28, i64 %.036
  %39 = load double, ptr %38, align 8, !tbaa !4
  %40 = load double, ptr %8, align 8, !tbaa !4
  %41 = load double, ptr %9, align 8, !tbaa !4
  %42 = fneg double %35
  %43 = fmul double %41, %42
  %44 = call double @llvm.fmuladd.f64(double %40, double %33, double %43)
  %45 = load double, ptr %10, align 8, !tbaa !4
  %46 = call double @llvm.fmuladd.f64(double %45, double %37, double %44)
  %47 = load double, ptr %11, align 8, !tbaa !4
  %48 = call double @llvm.fmuladd.f64(double %47, double %39, double %46)
  %49 = getelementptr inbounds double, ptr %29, i64 %.036
  store double %48, ptr %49, align 8, !tbaa !4
  %50 = load double, ptr %8, align 8, !tbaa !4
  %51 = load double, ptr %9, align 8, !tbaa !4
  %52 = fmul double %33, %51
  %53 = call double @llvm.fmuladd.f64(double %50, double %35, double %52)
  %54 = load double, ptr %10, align 8, !tbaa !4
  %55 = call double @llvm.fmuladd.f64(double %54, double %39, double %53)
  %56 = load double, ptr %11, align 8, !tbaa !4
  %57 = fneg double %56
  %58 = call double @llvm.fmuladd.f64(double %57, double %37, double %55)
  %59 = getelementptr inbounds double, ptr %30, i64 %.036
  store double %58, ptr %59, align 8, !tbaa !4
  %60 = add i64 %.036, 1
  %exitcond.not = icmp eq i64 %.036, %23
  br i1 %exitcond.not, label %._crit_edge, label %31

._crit_edge:                                      ; preds = %31, %20
  call void @__kmpc_for_static_fini(ptr nonnull @1, i32 %.pre)
  call void @llvm.lifetime.end.p0(i64 4, ptr nonnull %17) #4
  call void @llvm.lifetime.end.p0(i64 8, ptr nonnull %16) #4
  call void @llvm.lifetime.end.p0(i64 8, ptr nonnull %15) #4
  call void @llvm.lifetime.end.p0(i64 8, ptr nonnull %14) #4
  br label %61

61:                                               ; preds = %._crit_edge, %13
  call void @__kmpc_barrier(ptr nonnull @2, i32 %.pre)
  ret void
}